; Function Attrs: mustprogress nounwind uwtable
define internal fastcc noundef nonnull ptr @_ZN4llvh16itanium_demangle2DbIN12_GLOBAL__N_116DefaultAllocatorEE4makeINS0_16FunctionEncodingEJRPNS0_4NodeES9_NS0_9NodeArrayES9_RNS0_10QualifiersERNS0_15FunctionRefQualEEEES8_DpOT0_(ptr nocapture noundef nonnull align 16 dereferenceable(4864) %this, ptr nocapture noundef nonnull readonly align 8 dereferenceable(8) %args, ptr nocapture noundef nonnull readonly align 8 dereferenceable(8) %args1, ptr nocapture noundef nonnull readonly align 8 dereferenceable(16) %args3, ptr nocapture noundef nonnull readonly align 8 dereferenceable(8) %args5, ptr nocapture noundef nonnull readonly align 4 dereferenceable(4) %args7, ptr nocapture noundef nonnull readonly align 1 dereferenceable(1) %args9) unnamed_addr #1 align 2 {
entry:
  %BlockList.i.i = getelementptr inbounds i8, ptr %this, i64 4848
  %0 = load ptr, ptr %BlockList.i.i, align 16
  %Current.i.i = getelementptr inbounds i8, ptr %0, i64 8
  %1 = load i64, ptr %Current.i.i, align 8
  %2 = add i64 %1, -4016
  %cmp.i.i = icmp ult i64 %2, -4080
  br i1 %cmp.i.i, label %if.then.i.i, label %_ZN12_GLOBAL__N_116DefaultAllocator8makeNodeIN4llvh16itanium_demangle16FunctionEncodingEJRPNS3_4NodeES7_NS3_9NodeArrayES7_RNS3_10QualifiersERNS3_15FunctionRefQualEEEEPT_DpOT0_.exit

if.then.i.i:                                      ; preds = %entry
  %call.i6.i.i = tail call noalias dereferenceable_or_null(4096) ptr @malloc(i64 noundef 4096) #19
  %cmp.i7.i.i = icmp eq ptr %call.i6.i.i, null
  br i1 %cmp.i7.i.i, label %if.then.i9.i.i, label %_ZN12_GLOBAL__N_120BumpPointerAllocator4growEv.exit.i.i

if.then.i9.i.i:                                   ; preds = %if.then.i.i
  tail call void @_ZSt9terminatev() #22
  unreachable

_ZN12_GLOBAL__N_120BumpPointerAllocator4growEv.exit.i.i: ; preds = %if.then.i.i
  store ptr %0, ptr %call.i6.i.i, align 8
  %Current.i8.i.i = getelementptr inbounds i8, ptr %call.i6.i.i, i64 8
  store i64 0, ptr %Current.i8.i.i, align 8
  store ptr %call.i6.i.i, ptr %BlockList.i.i, align 16
  br label %_ZN12_GLOBAL__N_116DefaultAllocator8makeNodeIN4llvh16itanium_demangle16FunctionEncodingEJRPNS3_4NodeES7_NS3_9NodeArrayES7_RNS3_10QualifiersERNS3_15FunctionRefQualEEEEPT_DpOT0_.exit

_ZN12_GLOBAL__N_116DefaultAllocator8makeNodeIN4llvh16itanium_demangle16FunctionEncodingEJRPNS3_4NodeES7_NS3_9NodeArrayES7_RNS3_10QualifiersERNS3_15FunctionRefQualEEEEPT_DpOT0_.exit: ; preds = %entry, %_ZN12_GLOBAL__N_120BumpPointerAllocator4growEv.exit.i.i
  %3 = phi i64 [ 0, %_ZN12_GLOBAL__N_120BumpPointerAllocator4growEv.exit.i.i ], [ %1, %entry ]
  %4 = phi ptr [ %call.i6.i.i, %_ZN12_GLOBAL__N_120BumpPointerAllocator4growEv.exit.i.i ], [ %0, %entry ]
  %Current7.i.i = getelementptr inbounds i8, ptr %4, i64 8
  %add8.i.i = add nsw i64 %3, 64
  store i64 %add8.i.i, ptr %Current7.i.i, align 8
  %5 = load ptr, ptr %BlockList.i.i, align 16
  %add.ptr.i.i = getelementptr inbounds i8, ptr %5, i64 16
  %Current11.i.i = getelementptr inbounds i8, ptr %5, i64 8
  %6 = load i64, ptr %Current11.i.i, align 8
  %add.ptr12.i.i = getelementptr inbounds i8, ptr %add.ptr.i.i, i64 %6
  %add.ptr13.i.i = getelementptr inbounds i8, ptr %add.ptr12.i.i, i64 -64
  %7 = load ptr, ptr %args, align 8
  %8 = load ptr, ptr %args1, align 8
  %agg.tmp.sroa.0.0.copyload.i = load ptr, ptr %args3, align 8
  %agg.tmp.sroa.2.0..sroa_idx.i = getelementptr inbounds i8, ptr %args3, i64 8
  %agg.tmp.sroa.2.0.copyload.i = load i64, ptr %agg.tmp.sroa.2.0..sroa_idx.i, align 8
  %9 = load ptr, ptr %args5, align 8
  %10 = load i32, ptr %args7, align 4
  %11 = load i8, ptr %args9, align 1
  %K.i.i.i = getelementptr inbounds i8, ptr %add.ptr12.i.i, i64 -56
  store <4 x i8> <i8 18, i8 0, i8 1, i8 0>, ptr %K.i.i.i, align 8
  store ptr getelementptr inbounds ({ [11 x ptr] }, ptr @_ZTVN4llvh16itanium_demangle16FunctionEncodingE, i64 0, i32 0, i64 2), ptr %add.ptr13.i.i, align 8
  %Ret.i.i = getelementptr inbounds i8, ptr %add.ptr12.i.i, i64 -48
  store ptr %7, ptr %Ret.i.i, align 8
  %Name.i.i = getelementptr inbounds i8, ptr %add.ptr12.i.i, i64 -40
  store ptr %8, ptr %Name.i.i, align 8
  %Params.i.i = getelementptr inbounds i8, ptr %add.ptr12.i.i, i64 -32
  store ptr %agg.tmp.sroa.0.0.copyload.i, ptr %Params.i.i, align 8
  %Params_.sroa.2.0.Params.sroa_idx.i.i = getelementptr inbounds i8, ptr %add.ptr12.i.i, i64 -24
  store i64 %agg.tmp.sroa.2.0.copyload.i, ptr %Params_.sroa.2.0.Params.sroa_idx.i.i, align 8
  %Attrs.i.i = getelementptr inbounds i8, ptr %add.ptr12.i.i, i64 -16
  store ptr %9, ptr %Attrs.i.i, align 8
  %CVQuals.i.i = getelementptr inbounds i8, ptr %add.ptr12.i.i, i64 -8
  store i32 %10, ptr %CVQuals.i.i, align 8
  %RefQual.i.i = getelementptr inbounds i8, ptr %add.ptr12.i.i, i64 -4
  store i8 %11, ptr %RefQual.i.i, align 4
  ret ptr %add.ptr13.i.i
}